; Function Attrs: nounwind uwtable
define noalias nonnull ptr @l___private_Lean_Meta_Tactic_Grind_Split_0__Lean_Meta_Grind_mkCasesMajor___lambda__1___boxed(ptr noundef %0, ptr noundef %1, ptr noundef %2, ptr noundef %3, ptr noundef %4, ptr noundef %5, ptr noundef %6, ptr noundef %7, ptr noundef %8, ptr noundef %9) #0 {
  %11 = load ptr, ptr @l___private_Lean_Meta_Tactic_Grind_Split_0__Lean_Meta_Grind_mkGrindEM___closed__5, align 8, !tbaa !4
  %12 = tail call ptr @l_Lean_Expr_app___override(ptr noundef %11, ptr noundef %0) #4
  tail call void @lean_inc_heartbeat() #4
  %13 = tail call noalias ptr @mi_malloc_small(i64 noundef 24) #4
  %14 = icmp eq ptr %13, null
  br i1 %14, label %15, label %l___private_Lean_Meta_Tactic_Grind_Split_0__Lean_Meta_Grind_mkCasesMajor___lambda__1.exit

15:                                               ; preds = %10
  tail call void @lean_internal_panic_out_of_memory() #5
  unreachable

l___private_Lean_Meta_Tactic_Grind_Split_0__Lean_Meta_Grind_mkCasesMajor___lambda__1.exit: ; preds = %10
  %16 = getelementptr inbounds nuw i8, ptr %13, i64 4
  store i32 1, ptr %13, align 4, !tbaa !10
  store i32 131096, ptr %16, align 4
  %17 = getelementptr inbounds nuw i8, ptr %13, i64 8
  store ptr %12, ptr %17, align 8, !tbaa !4
  %18 = getelementptr inbounds nuw i8, ptr %13, i64 16
  store ptr %9, ptr %18, align 8, !tbaa !4
  %19 = ptrtoint ptr %8 to i64
  %20 = and i64 %19, 1
  %.not = icmp eq i64 %20, 0
  br i1 %.not, label %21, label %lean_dec.exit25

21:                                               ; preds = %l___private_Lean_Meta_Tactic_Grind_Split_0__Lean_Meta_Grind_mkCasesMajor___lambda__1.exit
  %22 = load i32, ptr %8, align 4, !tbaa !10
  %23 = icmp sgt i32 %22, 1
  br i1 %23, label %24, label %26, !prof !13

24:                                               ; preds = %21
  %25 = add nsw i32 %22, -1
  store i32 %25, ptr %8, align 4, !tbaa !10
  br label %lean_dec.exit25

26:                                               ; preds = %21
  %.not.i = icmp eq i32 %22, 0
  br i1 %.not.i, label %lean_dec.exit25, label %27

27:                                               ; preds = %26
  tail call void @lean_dec_ref_cold(ptr noundef nonnull %8) #4
  br label %lean_dec.exit25

lean_dec.exit25:                                  ; preds = %27, %26, %24, %l___private_Lean_Meta_Tactic_Grind_Split_0__Lean_Meta_Grind_mkCasesMajor___lambda__1.exit
  %28 = ptrtoint ptr %7 to i64
  %29 = and i64 %28, 1
  %.not40 = icmp eq i64 %29, 0
  br i1 %.not40, label %30, label %lean_dec.exit24

30:                                               ; preds = %lean_dec.exit25
  %31 = load i32, ptr %7, align 4, !tbaa !10
  %32 = icmp sgt i32 %31, 1
  br i1 %32, label %33, label %35, !prof !13

33:                                               ; preds = %30
  %34 = add nsw i32 %31, -1
  store i32 %34, ptr %7, align 4, !tbaa !10
  br label %lean_dec.exit24

35:                                               ; preds = %30
  %.not.i26 = icmp eq i32 %31, 0
  br i1 %.not.i26, label %lean_dec.exit24, label %36

36:                                               ; preds = %35
  tail call void @lean_dec_ref_cold(ptr noundef nonnull %7) #4
  br label %lean_dec.exit24

lean_dec.exit24:                                  ; preds = %36, %35, %33, %lean_dec.exit25
  %37 = ptrtoint ptr %6 to i64
  %38 = and i64 %37, 1
  %.not41 = icmp eq i64 %38, 0
  br i1 %.not41, label %39, label %lean_dec.exit23

39:                                               ; preds = %lean_dec.exit24
  %40 = load i32, ptr %6, align 4, !tbaa !10
  %41 = icmp sgt i32 %40, 1
  br i1 %41, label %42, label %44, !prof !13

42:                                               ; preds = %39
  %43 = add nsw i32 %40, -1
  store i32 %43, ptr %6, align 4, !tbaa !10
  br label %lean_dec.exit23

44:                                               ; preds = %39
  %.not.i28 = icmp eq i32 %40, 0
  br i1 %.not.i28, label %lean_dec.exit23, label %45

45:                                               ; preds = %44
  tail call void @lean_dec_ref_cold(ptr noundef nonnull %6) #4
  br label %lean_dec.exit23

lean_dec.exit23:                                  ; preds = %45, %44, %42, %lean_dec.exit24
  %46 = ptrtoint ptr %5 to i64
  %47 = and i64 %46, 1
  %.not42 = icmp eq i64 %47, 0
  br i1 %.not42, label %48, label %lean_dec.exit22

48:                                               ; preds = %lean_dec.exit23
  %49 = load i32, ptr %5, align 4, !tbaa !10
  %50 = icmp sgt i32 %49, 1
  br i1 %50, label %51, label %53, !prof !13

51:                                               ; preds = %48
  %52 = add nsw i32 %49, -1
  store i32 %52, ptr %5, align 4, !tbaa !10
  br label %lean_dec.exit22

53:                                               ; preds = %48
  %.not.i30 = icmp eq i32 %49, 0
  br i1 %.not.i30, label %lean_dec.exit22, label %54

54:                                               ; preds = %53
  tail call void @lean_dec_ref_cold(ptr noundef nonnull %5) #4
  br label %lean_dec.exit22

lean_dec.exit22:                                  ; preds = %54, %53, %51, %lean_dec.exit23
  %55 = ptrtoint ptr %4 to i64
  %56 = and i64 %55, 1
  %.not43 = icmp eq i64 %56, 0
  br i1 %.not43, label %57, label %lean_dec.exit21

57:                                               ; preds = %lean_dec.exit22
  %58 = load i32, ptr %4, align 4, !tbaa !10
  %59 = icmp sgt i32 %58, 1
  br i1 %59, label %60, label %62, !prof !13

60:                                               ; preds = %57
  %61 = add nsw i32 %58, -1
  store i32 %61, ptr %4, align 4, !tbaa !10
  br label %lean_dec.exit21

62:                                               ; preds = %57
  %.not.i32 = icmp eq i32 %58, 0
  br i1 %.not.i32, label %lean_dec.exit21, label %63

63:                                               ; preds = %62
  tail call void @lean_dec_ref_cold(ptr noundef nonnull %4) #4
  br label %lean_dec.exit21

lean_dec.exit21:                                  ; preds = %63, %62, %60, %lean_dec.exit22
  %64 = ptrtoint ptr %3 to i64
  %65 = and i64 %64, 1
  %.not44 = icmp eq i64 %65, 0
  br i1 %.not44, label %66, label %lean_dec.exit20

66:                                               ; preds = %lean_dec.exit21
  %67 = load i32, ptr %3, align 4, !tbaa !10
  %68 = icmp sgt i32 %67, 1
  br i1 %68, label %69, label %71, !prof !13

69:                                               ; preds = %66
  %70 = add nsw i32 %67, -1
  store i32 %70, ptr %3, align 4, !tbaa !10
  br label %lean_dec.exit20

71:                                               ; preds = %66
  %.not.i34 = icmp eq i32 %67, 0
  br i1 %.not.i34, label %lean_dec.exit20, label %72

72:                                               ; preds = %71
  tail call void @lean_dec_ref_cold(ptr noundef nonnull %3) #4
  br label %lean_dec.exit20

lean_dec.exit20:                                  ; preds = %72, %71, %69, %lean_dec.exit21
  %73 = ptrtoint ptr %2 to i64
  %74 = and i64 %73, 1
  %.not45 = icmp eq i64 %74, 0
  br i1 %.not45, label %75, label %lean_dec.exit19

75:                                               ; preds = %lean_dec.exit20
  %76 = load i32, ptr %2, align 4, !tbaa !10
  %77 = icmp sgt i32 %76, 1
  br i1 %77, label %78, label %80, !prof !13

78:                                               ; preds = %75
  %79 = add nsw i32 %76, -1
  store i32 %79, ptr %2, align 4, !tbaa !10
  br label %lean_dec.exit19

80:                                               ; preds = %75
  %.not.i36 = icmp eq i32 %76, 0
  br i1 %.not.i36, label %lean_dec.exit19, label %81

81:                                               ; preds = %80
  tail call void @lean_dec_ref_cold(ptr noundef nonnull %2) #4
  br label %lean_dec.exit19

lean_dec.exit19:                                  ; preds = %81, %80, %78, %lean_dec.exit20
  %82 = ptrtoint ptr %1 to i64
  %83 = and i64 %82, 1
  %.not46 = icmp eq i64 %83, 0
  br i1 %.not46, label %84, label %lean_dec.exit

84:                                               ; preds = %lean_dec.exit19
  %85 = load i32, ptr %1, align 4, !tbaa !10
  %86 = icmp sgt i32 %85, 1
  br i1 %86, label %87, label %89, !prof !13

87:                                               ; preds = %84
  %88 = add nsw i32 %85, -1
  store i32 %88, ptr %1, align 4, !tbaa !10
  br label %lean_dec.exit

89:                                               ; preds = %84
  %.not.i38 = icmp eq i32 %85, 0
  br i1 %.not.i38, label %lean_dec.exit, label %90

90:                                               ; preds = %89
  tail call void @lean_dec_ref_cold(ptr noundef nonnull %1) #4
  br label %lean_dec.exit

lean_dec.exit:                                    ; preds = %90, %89, %87, %lean_dec.exit19
  ret ptr %13
}